(lp0
S'defend'
p1
aS'attack'
p2
aS'bash'
p3
ag1
ag1
ag3
ag3
ag3
ag3
ag2
ag1
ag3
ag3
ag1
ag2
ag3
ag1
ag3
ag3
ag3
ag2
ag3
ag1
ag2
ag1
ag1
ag2
aS'defend'
p4
ag4
aS'attack'
p5
ag4
ag4
ag4
ag4
ag4
ag4
ag4
ag4
ag5
ag4
ag4
aS'bash'
p6
ag5
ag4
ag4
ag5
ag6
ag6
ag4
ag6
ag4
ag4
ag4
ag6
ag4
ag4
ag6
ag4
ag5
ag4
ag4
ag4
ag4
ag4
ag4
ag4
ag5
ag4
ag4
ag4
ag4
ag6
aS'defend'
p7
ag7
ag7
ag7
ag7
ag7
ag7
ag7
aS'bash'
p8
aS'attack'
p9
ag9
ag9
ag9
ag7
ag8
ag9
ag7
ag9
ag8
ag9
ag7
ag9
ag7
ag9
ag7
ag8
ag7
ag7
ag8
ag8
ag8
ag7
ag7
ag8
ag8
ag8
ag8
ag8
ag8
ag9
ag8
ag7
ag7
ag8
ag7
ag8
ag9
ag7
ag7
ag9
ag8
ag7
ag7
ag7
ag7
ag8
ag7
ag8
ag8
ag8
ag7
ag7
ag7
ag7
ag7
ag7
ag9
ag9
ag7
ag9
ag8
ag7
ag7
ag7
ag7
ag7
ag9
ag8
ag9
ag7
ag7
ag9
aS'bash'
p10
ag10
aS'defend'
p11
ag11
ag10
aS'attack'
p12
ag11
ag11
ag12
ag10
ag11
ag10
ag10
ag12
ag10
ag10
ag10
ag11
ag11
ag11
ag12
ag11
ag11
ag12
ag10
ag11
ag10
ag10
ag11
ag10
aS'defend'
p13
aS'bash'
p14
aS'attack'
p15
ag13
ag14
ag15
ag13
ag13
ag13
ag13
ag13
ag13
ag13
ag13
ag13
ag13
ag13
ag13
ag14
ag15
ag13
ag13
ag13
ag14
ag15
ag13
ag13
ag14
ag13
ag15
ag14
ag14
ag14
ag13
ag13
ag14
ag15
ag13
ag14
ag13
ag14
ag13
ag14
ag15
ag15
ag15
ag13
ag13
ag14
ag15
ag14
ag14
aS'defend'
p16
aS'bash'
p17
aS'attack'
p18
ag17
ag16
ag17
ag16
ag17
ag17
ag17
ag16
ag16
ag17
ag17
aS'attack'
p19
ag19
aS'defend'
p20
ag19
ag20
aS'bash'
p21
ag21
ag19
ag21
ag20
ag21
ag21
ag19
ag19
ag19
ag19
ag19
ag21
ag19
ag20
ag20
ag20
aS'bash'
p22
aS'attack'
p23
ag22
aS'defend'
p24
ag24
ag22
ag23
ag23
ag22
ag22
ag23
ag23
ag24
ag24
ag24
ag23
ag24
ag24
ag22
ag23
ag23
ag24
ag23
ag24
ag22
ag22
a.