(lp0
S'defend'
p1
aS'bash'
p2
aS'attack'
p3
ag2
ag3
ag1
ag1
ag1
ag3
ag2
ag3
ag3
ag3
ag1
ag2
ag3
ag1
ag1
ag2
ag1
ag1
ag1
ag1
ag1
ag1
ag1
ag1
ag1
ag1
ag2
ag1
ag2
ag1
ag1
ag3
ag3
ag1
ag3
ag1
ag3
ag1
ag2
ag2
ag2
ag3
ag3
ag3
ag3
ag3
ag3
ag3
ag3
ag3
ag1
ag3
ag1
ag1
ag3
ag3
ag1
ag3
ag3
ag1
ag2
ag3
ag1
ag2
ag2
ag1
ag2
a.